; Function Attrs: mustprogress nounwind uwtable
define hidden noundef range(i32 0, 2) i32 @_ZN15ConnectionGraph16find_field_valueEP9FieldNode(ptr noundef nonnull align 8 dereferenceable(232) %0, ptr noundef %1) local_unnamed_addr #0 align 2 {
  %3 = getelementptr inbounds i8, ptr %1, i64 72
  %4 = load i32, ptr %3, align 4
  %5 = icmp sgt i32 %4, 0
  br i1 %5, label %.lr.ph, label %._crit_edge

.lr.ph:                                           ; preds = %2
  %6 = getelementptr inbounds i8, ptr %1, i64 80
  %7 = load ptr, ptr %6, align 8
  %wide.trip.count = zext nneg i32 %4 to i64
  br label %8

8:                                                ; preds = %.lr.ph, %21
  %indvars.iv = phi i64 [ 0, %.lr.ph ], [ %indvars.iv.next, %21 ]
  %9 = getelementptr inbounds ptr, ptr %7, i64 %indvars.iv
  %10 = load ptr, ptr %9, align 8
  %11 = getelementptr inbounds i8, ptr %10, i64 48
  %12 = load i8, ptr %11, align 8
  %13 = icmp eq i8 %12, 1
  br i1 %13, label %14, label %21

14:                                               ; preds = %8
  %15 = getelementptr inbounds i8, ptr %10, i64 56
  %16 = load ptr, ptr %15, align 8
  %17 = getelementptr inbounds i8, ptr %16, i64 44
  %18 = load i32, ptr %17, align 4
  %19 = and i32 %18, 63
  %20 = icmp eq i32 %19, 39
  br i1 %20, label %.loopexit, label %21

21:                                               ; preds = %8, %14
  %indvars.iv.next = add nuw nsw i64 %indvars.iv, 1
  %exitcond.not = icmp eq i64 %indvars.iv.next, %wide.trip.count
  br i1 %exitcond.not, label %._crit_edge, label %8, !llvm.loop !36

._crit_edge:                                      ; preds = %21, %2
  %22 = getelementptr inbounds i8, ptr %0, i64 200
  %23 = load ptr, ptr %22, align 8
  %24 = tail call noundef zeroext i1 @_ZN15ConnectionGraph8add_edgeEP12PointsToNodeS1_(ptr noundef nonnull align 8 dereferenceable(232) %0, ptr noundef nonnull %1, ptr noundef %23)
  br i1 %24, label %25, label %.loopexit

25:                                               ; preds = %._crit_edge
  tail call void @_ZN15ConnectionGraph26add_field_uses_to_worklistEP9FieldNode(ptr noundef nonnull align 8 dereferenceable(232) %0, ptr noundef nonnull %1)
  br label %.loopexit

.loopexit:                                        ; preds = %14, %._crit_edge, %25
  %.0 = phi i32 [ 1, %25 ], [ 0, %._crit_edge ], [ 0, %14 ]
  ret i32 %.0
}